target datalayout = "e-m:e-p270:32:32-p271:32:32-p272:64:64-i64:64-i128:128-f80:128-n8:16:32:64-S128"
target triple = "x86_64-pc-linux-gnu"

@g_displayLevel = internal global i32 0, align 4
@stderr = external global ptr, align 8
@.str = private unnamed_addr constant [12 x i8] c"Error %i : \00", align 1
@.str.2 = private unnamed_addr constant [3 x i8] c" \0A\00", align 1
@.str.103 = private unnamed_addr constant [32 x i8] c"Final skip error (sparse file)\0A\00", align 1
@.str.104 = private unnamed_addr constant [38 x i8] c"Write error : cannot write last zero\0A\00", align 1

; Function Attrs: nounwind uwtable
define internal void @LZ4IO_fwriteSparseEnd(ptr noundef %0, i32 noundef %1) #0 {
  %3 = alloca ptr, align 8
  %4 = alloca i32, align 4
  %5 = alloca [1 x i8], align 1
  store ptr %0, ptr %3, align 8, !tbaa !11
  store i32 %1, ptr %4, align 4, !tbaa !9
  %6 = load i32, ptr %4, align 4, !tbaa !9
  %7 = icmp ugt i32 %6, 0
  br i1 %7, label %8, label %97

8:                                                ; preds = %2
  call void @llvm.lifetime.start.p0(i64 1, ptr %5) #13
  call void @llvm.memset.p0.i64(ptr align 1 %5, i8 0, i64 1, i1 false)
  %9 = load ptr, ptr %3, align 8, !tbaa !11
  %10 = load i32, ptr %4, align 4, !tbaa !9
  %11 = sub i32 %10, 1
  %12 = zext i32 %11 to i64
  %13 = call i32 @fseek(ptr noundef %9, i64 noundef %12, i32 noundef 1)
  %14 = icmp ne i32 %13, 0
  br i1 %14, label %15, label %53

15:                                               ; preds = %8
  %16 = load i32, ptr @g_displayLevel, align 4, !tbaa !9
  %17 = icmp sge i32 %16, 1
  br i1 %17, label %18, label %27

18:                                               ; preds = %15
  %19 = load ptr, ptr @stderr, align 8, !tbaa !11
  %20 = call i32 (ptr, ptr, ...) @fprintf(ptr noundef %19, ptr noundef @.str, i32 noundef 69) #13
  %21 = load i32, ptr @g_displayLevel, align 4, !tbaa !9
  %22 = icmp sge i32 %21, 4
  br i1 %22, label %23, label %26

23:                                               ; preds = %18
  %24 = load ptr, ptr @stderr, align 8, !tbaa !11
  %25 = call i32 @fflush(ptr noundef %24)
  br label %26

26:                                               ; preds = %23, %18
  br label %27

27:                                               ; preds = %26, %15
  %28 = load i32, ptr @g_displayLevel, align 4, !tbaa !9
  %29 = icmp sge i32 %28, 1
  br i1 %29, label %30, label %39

30:                                               ; preds = %27
  %31 = load ptr, ptr @stderr, align 8, !tbaa !11
  %32 = call i32 (ptr, ptr, ...) @fprintf(ptr noundef %31, ptr noundef @.str.103) #13
  %33 = load i32, ptr @g_displayLevel, align 4, !tbaa !9
  %34 = icmp sge i32 %33, 4
  br i1 %34, label %35, label %38

35:                                               ; preds = %30
  %36 = load ptr, ptr @stderr, align 8, !tbaa !11
  %37 = call i32 @fflush(ptr noundef %36)
  br label %38

38:                                               ; preds = %35, %30
  br label %39

39:                                               ; preds = %38, %27
  %40 = load i32, ptr @g_displayLevel, align 4, !tbaa !9
  %41 = icmp sge i32 %40, 1
  br i1 %41, label %42, label %51

42:                                               ; preds = %39
  %43 = load ptr, ptr @stderr, align 8, !tbaa !11
  %44 = call i32 (ptr, ptr, ...) @fprintf(ptr noundef %43, ptr noundef @.str.2) #13
  %45 = load i32, ptr @g_displayLevel, align 4, !tbaa !9
  %46 = icmp sge i32 %45, 4
  br i1 %46, label %47, label %50

47:                                               ; preds = %42
  %48 = load ptr, ptr @stderr, align 8, !tbaa !11
  %49 = call i32 @fflush(ptr noundef %48)
  br label %50

50:                                               ; preds = %47, %42
  br label %51

51:                                               ; preds = %50, %39
  %52 = call i32 @fflush(ptr noundef null)
  call void @exit(i32 noundef 69) #15
  unreachable

53:                                               ; preds = %8
  %54 = getelementptr inbounds [1 x i8], ptr %5, i64 0, i64 0
  %55 = load ptr, ptr %3, align 8, !tbaa !11
  %56 = call i64 @fwrite(ptr noundef %54, i64 noundef 1, i64 noundef 1, ptr noundef %55)
  %57 = icmp ne i64 %56, 1
  br i1 %57, label %58, label %96

58:                                               ; preds = %53
  %59 = load i32, ptr @g_displayLevel, align 4, !tbaa !9
  %60 = icmp sge i32 %59, 1
  br i1 %60, label %61, label %70

61:                                               ; preds = %58
  %62 = load ptr, ptr @stderr, align 8, !tbaa !11
  %63 = call i32 (ptr, ptr, ...) @fprintf(ptr noundef %62, ptr noundef @.str, i32 noundef 69) #13
  %64 = load i32, ptr @g_displayLevel, align 4, !tbaa !9
  %65 = icmp sge i32 %64, 4
  br i1 %65, label %66, label %69

66:                                               ; preds = %61
  %67 = load ptr, ptr @stderr, align 8, !tbaa !11
  %68 = call i32 @fflush(ptr noundef %67)
  br label %69

69:                                               ; preds = %66, %61
  br label %70

70:                                               ; preds = %69, %58
  %71 = load i32, ptr @g_displayLevel, align 4, !tbaa !9
  %72 = icmp sge i32 %71, 1
  br i1 %72, label %73, label %82

73:                                               ; preds = %70
  %74 = load ptr, ptr @stderr, align 8, !tbaa !11
  %75 = call i32 (ptr, ptr, ...) @fprintf(ptr noundef %74, ptr noundef @.str.104) #13
  %76 = load i32, ptr @g_displayLevel, align 4, !tbaa !9
  %77 = icmp sge i32 %76, 4
  br i1 %77, label %78, label %81

78:                                               ; preds = %73
  %79 = load ptr, ptr @stderr, align 8, !tbaa !11
  %80 = call i32 @fflush(ptr noundef %79)
  br label %81

81:                                               ; preds = %78, %73
  br label %82

82:                                               ; preds = %81, %70
  %83 = load i32, ptr @g_displayLevel, align 4, !tbaa !9
  %84 = icmp sge i32 %83, 1
  br i1 %84, label %85, label %94

85:                                               ; preds = %82
  %86 = load ptr, ptr @stderr, align 8, !tbaa !11
  %87 = call i32 (ptr, ptr, ...) @fprintf(ptr noundef %86, ptr noundef @.str.2) #13
  %88 = load i32, ptr @g_displayLevel, align 4, !tbaa !9
  %89 = icmp sge i32 %88, 4
  br i1 %89, label %90, label %93

90:                                               ; preds = %85
  %91 = load ptr, ptr @stderr, align 8, !tbaa !11
  %92 = call i32 @fflush(ptr noundef %91)
  br label %93

93:                                               ; preds = %90, %85
  br label %94

94:                                               ; preds = %93, %82
  %95 = call i32 @fflush(ptr noundef null)
  call void @exit(i32 noundef 69) #15
  unreachable

96:                                               ; preds = %53
  call void @llvm.lifetime.end.p0(i64 1, ptr %5) #13
  br label %97

97:                                               ; preds = %96, %2
  ret void
}