; Function Attrs: nofree nounwind uwtable
define internal fastcc void @LZ4IO_fwriteSparseEnd(ptr noundef captures(none) %0, i32 noundef %1) unnamed_addr #3 {
  %3 = alloca [1 x i8], align 1
  %.not = icmp eq i32 %1, 0
  br i1 %.not, label %77, label %4

4:                                                ; preds = %2
  call void @llvm.lifetime.start.p0(i64 1, ptr nonnull %3) #24
  store i8 0, ptr %3, align 1
  %5 = add i32 %1, -1
  %6 = zext i32 %5 to i64
  %7 = tail call i32 @fseek(ptr noundef %0, i64 noundef %6, i32 noundef 1)
  %.not3 = icmp eq i32 %7, 0
  br i1 %.not3, label %41, label %8

8:                                                ; preds = %4
  %9 = load i32, ptr @g_displayLevel, align 4, !tbaa !4
  %10 = icmp sgt i32 %9, 0
  br i1 %10, label %11, label %.thread6

11:                                               ; preds = %8
  %12 = load ptr, ptr @stderr, align 8, !tbaa !8
  %13 = tail call i32 (ptr, ptr, ...) @fprintf(ptr noundef %12, ptr noundef nonnull @.str, i32 noundef 69) #26
  %14 = load i32, ptr @g_displayLevel, align 4, !tbaa !4
  %15 = icmp sgt i32 %14, 3
  br i1 %15, label %16, label %19

16:                                               ; preds = %11
  %17 = load ptr, ptr @stderr, align 8, !tbaa !8
  %18 = tail call i32 @fflush(ptr noundef %17)
  %.pr = load i32, ptr @g_displayLevel, align 4, !tbaa !4
  br label %19

19:                                               ; preds = %11, %16
  %20 = phi i32 [ %14, %11 ], [ %.pr, %16 ]
  %21 = icmp sgt i32 %20, 0
  br i1 %21, label %22, label %.thread6

22:                                               ; preds = %19
  %23 = load ptr, ptr @stderr, align 8, !tbaa !8
  %24 = tail call i64 @fwrite(ptr nonnull @.str.103, i64 31, i64 1, ptr %23) #27
  %25 = load i32, ptr @g_displayLevel, align 4, !tbaa !4
  %26 = icmp sgt i32 %25, 3
  br i1 %26, label %27, label %thread-pre-split

27:                                               ; preds = %22
  %28 = load ptr, ptr @stderr, align 8, !tbaa !8
  %29 = tail call i32 @fflush(ptr noundef %28)
  %.pr5.pre = load i32, ptr @g_displayLevel, align 4, !tbaa !4
  br label %thread-pre-split

thread-pre-split:                                 ; preds = %27, %22
  %30 = phi i32 [ %25, %22 ], [ %.pr5.pre, %27 ]
  %31 = icmp sgt i32 %30, 0
  br i1 %31, label %32, label %.thread6

32:                                               ; preds = %thread-pre-split
  %33 = load ptr, ptr @stderr, align 8, !tbaa !8
  %34 = tail call i64 @fwrite(ptr nonnull @.str.2, i64 2, i64 1, ptr %33) #27
  %35 = load i32, ptr @g_displayLevel, align 4, !tbaa !4
  %36 = icmp sgt i32 %35, 3
  br i1 %36, label %37, label %.thread6

37:                                               ; preds = %32
  %38 = load ptr, ptr @stderr, align 8, !tbaa !8
  %39 = tail call i32 @fflush(ptr noundef %38)
  br label %.thread6

.thread6:                                         ; preds = %19, %8, %32, %37, %thread-pre-split
  %40 = tail call i32 @fflush(ptr noundef null)
  tail call void @exit(i32 noundef 69) #28
  unreachable

41:                                               ; preds = %4
  %42 = call i64 @fwrite(ptr noundef nonnull %3, i64 noundef 1, i64 noundef 1, ptr noundef %0)
  %.not4 = icmp eq i64 %42, 1
  br i1 %.not4, label %76, label %43

43:                                               ; preds = %41
  %44 = load i32, ptr @g_displayLevel, align 4, !tbaa !4
  %45 = icmp sgt i32 %44, 0
  br i1 %45, label %46, label %.thread11

46:                                               ; preds = %43
  %47 = load ptr, ptr @stderr, align 8, !tbaa !8
  %48 = tail call i32 (ptr, ptr, ...) @fprintf(ptr noundef %47, ptr noundef nonnull @.str, i32 noundef 69) #26
  %49 = load i32, ptr @g_displayLevel, align 4, !tbaa !4
  %50 = icmp sgt i32 %49, 3
  br i1 %50, label %51, label %54

51:                                               ; preds = %46
  %52 = load ptr, ptr @stderr, align 8, !tbaa !8
  %53 = tail call i32 @fflush(ptr noundef %52)
  %.pr7 = load i32, ptr @g_displayLevel, align 4, !tbaa !4
  br label %54

54:                                               ; preds = %46, %51
  %55 = phi i32 [ %49, %46 ], [ %.pr7, %51 ]
  %56 = icmp sgt i32 %55, 0
  br i1 %56, label %57, label %.thread11

57:                                               ; preds = %54
  %58 = load ptr, ptr @stderr, align 8, !tbaa !8
  %59 = tail call i64 @fwrite(ptr nonnull @.str.104, i64 37, i64 1, ptr %58) #27
  %60 = load i32, ptr @g_displayLevel, align 4, !tbaa !4
  %61 = icmp sgt i32 %60, 3
  br i1 %61, label %62, label %thread-pre-split9

62:                                               ; preds = %57
  %63 = load ptr, ptr @stderr, align 8, !tbaa !8
  %64 = tail call i32 @fflush(ptr noundef %63)
  %.pr10.pre = load i32, ptr @g_displayLevel, align 4, !tbaa !4
  br label %thread-pre-split9

thread-pre-split9:                                ; preds = %62, %57
  %65 = phi i32 [ %60, %57 ], [ %.pr10.pre, %62 ]
  %66 = icmp sgt i32 %65, 0
  br i1 %66, label %67, label %.thread11

67:                                               ; preds = %thread-pre-split9
  %68 = load ptr, ptr @stderr, align 8, !tbaa !8
  %69 = tail call i64 @fwrite(ptr nonnull @.str.2, i64 2, i64 1, ptr %68) #27
  %70 = load i32, ptr @g_displayLevel, align 4, !tbaa !4
  %71 = icmp sgt i32 %70, 3
  br i1 %71, label %72, label %.thread11

72:                                               ; preds = %67
  %73 = load ptr, ptr @stderr, align 8, !tbaa !8
  %74 = tail call i32 @fflush(ptr noundef %73)
  br label %.thread11

.thread11:                                        ; preds = %54, %43, %67, %72, %thread-pre-split9
  %75 = tail call i32 @fflush(ptr noundef null)
  tail call void @exit(i32 noundef 69) #28
  unreachable

76:                                               ; preds = %41
  call void @llvm.lifetime.end.p0(i64 1, ptr nonnull %3) #24
  br label %77

77:                                               ; preds = %76, %2
  ret void
}